; ModuleID = 'bench/faiss/original/CodePacker.ll'
source_filename = "bench/faiss/original/CodePacker.ll"
target datalayout = "e-m:e-p270:32:32-p271:32:32-p272:64:64-i64:64-i128:128-f80:128-n8:16:32:64-S128"
target triple = "x86_64-pc-linux-gnu"

$_ZN5faiss10CodePackerD0Ev = comdat any

$_ZN5faiss10CodePackerD2Ev = comdat any

$_ZN5faiss14CodePackerFlatD0Ev = comdat any

@_ZTVN5faiss10CodePackerE = unnamed_addr constant { [8 x ptr] } { [8 x ptr] [ptr null, ptr @_ZTIN5faiss10CodePackerE, ptr @__cxa_pure_virtual, ptr @__cxa_pure_virtual, ptr @_ZNK5faiss10CodePacker8pack_allEPKhPh, ptr @_ZNK5faiss10CodePacker10unpack_allEPKhPh, ptr @_ZN5faiss10CodePackerD2Ev, ptr @_ZN5faiss10CodePackerD0Ev] }, align 8
@_ZTIN5faiss10CodePackerE = constant { ptr, ptr } { ptr getelementptr inbounds (ptr, ptr @_ZTVN10__cxxabiv117__class_type_infoE, i64 2), ptr @_ZTSN5faiss10CodePackerE }, align 8
@_ZTVN10__cxxabiv117__class_type_infoE = external global [0 x ptr]
@_ZTSN5faiss10CodePackerE = constant [21 x i8] c"N5faiss10CodePackerE\00", align 1
@_ZTVN5faiss14CodePackerFlatE = unnamed_addr constant { [8 x ptr] } { [8 x ptr] [ptr null, ptr @_ZTIN5faiss14CodePackerFlatE, ptr @_ZNK5faiss14CodePackerFlat6pack_1EPKhmPh, ptr @_ZNK5faiss14CodePackerFlat8unpack_1EPKhmPh, ptr @_ZNK5faiss14CodePackerFlat8pack_allEPKhPh, ptr @_ZNK5faiss14CodePackerFlat10unpack_allEPKhPh, ptr @_ZN5faiss10CodePackerD2Ev, ptr @_ZN5faiss14CodePackerFlatD0Ev] }, align 8
@_ZTIN5faiss14CodePackerFlatE = constant { ptr, ptr, ptr } { ptr getelementptr inbounds (ptr, ptr @_ZTVN10__cxxabiv120__si_class_type_infoE, i64 2), ptr @_ZTSN5faiss14CodePackerFlatE, ptr @_ZTIN5faiss10CodePackerE }, align 8
@_ZTVN10__cxxabiv120__si_class_type_infoE = external global [0 x ptr]
@_ZTSN5faiss14CodePackerFlatE = constant [25 x i8] c"N5faiss14CodePackerFlatE\00", align 1

@_ZN5faiss14CodePackerFlatC1Em = unnamed_addr alias void (ptr, i64), ptr @_ZN5faiss14CodePackerFlatC2Em

declare void @__cxa_pure_virtual() unnamed_addr

; Function Attrs: mustprogress uwtable
define void @_ZNK5faiss10CodePacker8pack_allEPKhPh(ptr noundef nonnull align 8 dereferenceable(32) %0, ptr noundef %1, ptr noundef %2) unnamed_addr #0 align 2 {
  %4 = getelementptr inbounds nuw i8, ptr %0, i64 16
  %5 = load i64, ptr %4, align 8, !tbaa !4
  %.not = icmp eq i64 %5, 0
  br i1 %.not, label %._crit_edge, label %.lr.ph

.lr.ph:                                           ; preds = %3
  %6 = getelementptr inbounds nuw i8, ptr %0, i64 8
  br label %7

._crit_edge:                                      ; preds = %7, %3
  ret void

7:                                                ; preds = %.lr.ph, %7
  %.06 = phi i64 [ 0, %.lr.ph ], [ %13, %7 ]
  %8 = load i64, ptr %6, align 8, !tbaa !9
  %9 = mul i64 %8, %.06
  %10 = getelementptr inbounds nuw i8, ptr %1, i64 %9
  %11 = load ptr, ptr %0, align 8, !tbaa !10
  %12 = load ptr, ptr %11, align 8
  tail call void %12(ptr noundef nonnull align 8 dereferenceable(32) %0, ptr noundef %10, i64 noundef %.06, ptr noundef %2)
  %13 = add nuw i64 %.06, 1
  %14 = load i64, ptr %4, align 8, !tbaa !4
  %15 = icmp ult i64 %13, %14
  br i1 %15, label %7, label %._crit_edge, !llvm.loop !12
}

; Function Attrs: mustprogress uwtable
define void @_ZNK5faiss10CodePacker10unpack_allEPKhPh(ptr noundef nonnull align 8 dereferenceable(32) %0, ptr noundef %1, ptr noundef %2) unnamed_addr #0 align 2 {
  %4 = getelementptr inbounds nuw i8, ptr %0, i64 16
  %5 = load i64, ptr %4, align 8, !tbaa !4
  %.not = icmp eq i64 %5, 0
  br i1 %.not, label %._crit_edge, label %.lr.ph

.lr.ph:                                           ; preds = %3
  %6 = getelementptr inbounds nuw i8, ptr %0, i64 8
  br label %7

._crit_edge:                                      ; preds = %7, %3
  ret void

7:                                                ; preds = %.lr.ph, %7
  %.06 = phi i64 [ 0, %.lr.ph ], [ %14, %7 ]
  %8 = load i64, ptr %6, align 8, !tbaa !9
  %9 = mul i64 %8, %.06
  %10 = getelementptr inbounds nuw i8, ptr %2, i64 %9
  %11 = load ptr, ptr %0, align 8, !tbaa !10
  %12 = getelementptr inbounds nuw i8, ptr %11, i64 8
  %13 = load ptr, ptr %12, align 8
  tail call void %13(ptr noundef nonnull align 8 dereferenceable(32) %0, ptr noundef %1, i64 noundef %.06, ptr noundef %10)
  %14 = add nuw i64 %.06, 1
  %15 = load i64, ptr %4, align 8, !tbaa !4
  %16 = icmp ult i64 %14, %15
  br i1 %16, label %7, label %._crit_edge, !llvm.loop !14
}

; Function Attrs: mustprogress nounwind uwtable
define linkonce_odr void @_ZN5faiss10CodePackerD0Ev(ptr noundef nonnull align 8 dereferenceable(32) %0) unnamed_addr #1 comdat align 2 {
  tail call void @llvm.trap() #8
  unreachable
}

; Function Attrs: mustprogress nofree norecurse nosync nounwind willreturn memory(argmem: readwrite) uwtable
define void @_ZNK5faiss14CodePackerFlat6pack_1EPKhmPh(ptr noundef nonnull readonly align 8 captures(none) dereferenceable(32) %0, ptr noundef readonly captures(none) %1, i64 %2, ptr noundef writeonly captures(none) %3) unnamed_addr #2 align 2 {
  %5 = getelementptr inbounds nuw i8, ptr %0, i64 8
  %6 = load i64, ptr %5, align 8, !tbaa !9
  tail call void @llvm.memcpy.p0.p0.i64(ptr align 1 %3, ptr readonly align 1 %1, i64 %6, i1 false)
  ret void
}

; Function Attrs: mustprogress nofree norecurse nosync nounwind willreturn memory(argmem: readwrite) uwtable
define void @_ZNK5faiss14CodePackerFlat8unpack_1EPKhmPh(ptr noundef nonnull readonly align 8 captures(none) dereferenceable(32) %0, ptr noundef readonly captures(none) %1, i64 %2, ptr noundef writeonly captures(none) %3) unnamed_addr #2 align 2 {
  %5 = getelementptr inbounds nuw i8, ptr %0, i64 8
  %6 = load i64, ptr %5, align 8, !tbaa !9
  tail call void @llvm.memcpy.p0.p0.i64(ptr align 1 %3, ptr readonly align 1 %1, i64 %6, i1 false)
  ret void
}

; Function Attrs: mustprogress nofree norecurse nosync nounwind willreturn memory(argmem: readwrite) uwtable
define void @_ZNK5faiss14CodePackerFlat8pack_allEPKhPh(ptr noundef nonnull readonly align 8 captures(none) dereferenceable(32) %0, ptr noundef readonly captures(none) %1, ptr noundef writeonly captures(none) %2) unnamed_addr #2 align 2 {
  %4 = getelementptr inbounds nuw i8, ptr %0, i64 8
  %5 = load i64, ptr %4, align 8, !tbaa !9
  tail call void @llvm.memcpy.p0.p0.i64(ptr align 1 %2, ptr align 1 %1, i64 %5, i1 false)
  ret void
}

; Function Attrs: mustprogress nofree norecurse nosync nounwind willreturn memory(argmem: readwrite) uwtable
define void @_ZNK5faiss14CodePackerFlat10unpack_allEPKhPh(ptr noundef nonnull readonly align 8 captures(none) dereferenceable(32) %0, ptr noundef readonly captures(none) %1, ptr noundef writeonly captures(none) %2) unnamed_addr #2 align 2 {
  %4 = getelementptr inbounds nuw i8, ptr %0, i64 8
  %5 = load i64, ptr %4, align 8, !tbaa !9
  tail call void @llvm.memcpy.p0.p0.i64(ptr align 1 %2, ptr align 1 %1, i64 %5, i1 false)
  ret void
}

; Function Attrs: mustprogress nounwind uwtable
define linkonce_odr void @_ZN5faiss10CodePackerD2Ev(ptr noundef nonnull align 8 dereferenceable(32) %0) unnamed_addr #1 comdat align 2 {
  ret void
}

; Function Attrs: inlinehint mustprogress nounwind uwtable
define linkonce_odr void @_ZN5faiss14CodePackerFlatD0Ev(ptr noundef nonnull align 8 dereferenceable(32) %0) unnamed_addr #3 comdat align 2 {
  tail call void @_ZdlPvm(ptr noundef nonnull %0, i64 noundef 32) #9
  ret void
}

; Function Attrs: mustprogress nofree norecurse nosync nounwind willreturn memory(argmem: write) uwtable
define void @_ZN5faiss14CodePackerFlatC2Em(ptr noundef nonnull writeonly align 8 captures(none) dereferenceable(32) initializes((0, 32)) %0, i64 noundef %1) unnamed_addr #4 align 2 {
  store ptr getelementptr inbounds nuw inrange(-16, 48) (i8, ptr @_ZTVN5faiss14CodePackerFlatE, i64 16), ptr %0, align 8, !tbaa !10
  %3 = getelementptr inbounds nuw i8, ptr %0, i64 8
  store i64 %1, ptr %3, align 8, !tbaa !9
  %4 = getelementptr inbounds nuw i8, ptr %0, i64 16
  store i64 1, ptr %4, align 8, !tbaa !4
  %5 = getelementptr inbounds nuw i8, ptr %0, i64 24
  store i64 %1, ptr %5, align 8, !tbaa !15
  ret void
}

; Function Attrs: mustprogress nocallback nofree nounwind willreturn memory(argmem: readwrite)
declare void @llvm.memcpy.p0.p0.i64(ptr noalias writeonly captures(none), ptr noalias readonly captures(none), i64, i1 immarg) #5

; Function Attrs: cold noreturn nounwind memory(inaccessiblemem: write)
declare void @llvm.trap() #6

; Function Attrs: nobuiltin nounwind
declare void @_ZdlPvm(ptr noundef, i64 noundef) local_unnamed_addr #7


!llvm.module.flags = !{!0, !1, !2, !3}

!0 = !{i32 1, !"wchar_size", i32 4}
!1 = !{i32 7, !"openmp", i32 51}
!2 = !{i32 8, !"PIC Level", i32 2}
!3 = !{i32 7, !"uwtable", i32 2}
!4 = !{!5, !6, i64 16}
!5 = !{!"_ZTSN5faiss10CodePackerE", !6, i64 8, !6, i64 16, !6, i64 24}
!6 = !{!"long", !7, i64 0}
!7 = !{!"omnipotent char", !8, i64 0}
!8 = !{!"Simple C++ TBAA"}
!9 = !{!5, !6, i64 8}
!10 = !{!11, !11, i64 0}
!11 = !{!"vtable pointer", !8, i64 0}
!12 = distinct !{!12, !13}
!13 = !{!"llvm.loop.mustprogress"}
!14 = distinct !{!14, !13}
!15 = !{!5, !6, i64 24}
